; Function Attrs: nounwind uwtable
define ptr @l_Array_foldlMUnsafe_fold___at_Lean_Elab_Tactic_BVDecide_LRAT_trim_useAnalysis_go___spec__1(ptr noundef readonly captures(none) %0, i64 noundef %1, i64 noundef %2, ptr noundef %3) local_unnamed_addr #0 {
  %.not45 = icmp eq i64 %1, %2
  br i1 %.not45, label %._crit_edge, label %.lr.ph

.lr.ph:                                           ; preds = %4
  %5 = getelementptr inbounds nuw i8, ptr %0, i64 24
  br label %6

6:                                                ; preds = %.lr.ph, %53
  %.02247 = phi i64 [ %1, %.lr.ph ], [ %54, %53 ]
  %.02446 = phi ptr [ %3, %.lr.ph ], [ %45, %53 ]
  %7 = getelementptr inbounds nuw [0 x ptr], ptr %5, i64 0, i64 %.02247
  %8 = load ptr, ptr %7, align 8, !tbaa !13
  %9 = ptrtoint ptr %8 to i64
  %10 = and i64 %9, 1
  %.not.i30 = icmp eq i64 %10, 0
  br i1 %.not.i30, label %11, label %lean_array_uget.exit

11:                                               ; preds = %6
  %.val.i.i = load i32, ptr %8, align 4, !tbaa !9
  %12 = icmp sgt i32 %.val.i.i, 0
  br i1 %12, label %13, label %15, !prof !12

13:                                               ; preds = %11
  %14 = add nuw i32 %.val.i.i, 1
  store i32 %14, ptr %8, align 4, !tbaa !9
  br label %lean_array_uget.exit

15:                                               ; preds = %11
  %.not.i.i = icmp eq i32 %.val.i.i, 0
  br i1 %.not.i.i, label %lean_array_uget.exit, label %16

16:                                               ; preds = %15
  tail call void @lean_inc_ref_cold(ptr noundef nonnull %8) #3
  br label %lean_array_uget.exit

lean_array_uget.exit:                             ; preds = %6, %13, %15, %16
  %17 = getelementptr inbounds nuw i8, ptr %8, i64 8
  %18 = load ptr, ptr %17, align 8, !tbaa !13
  %19 = ptrtoint ptr %18 to i64
  %20 = and i64 %19, 1
  %.not42 = icmp eq i64 %20, 0
  br i1 %.not42, label %21, label %lean_inc.exit27

21:                                               ; preds = %lean_array_uget.exit
  %.val.i = load i32, ptr %18, align 4, !tbaa !9
  %22 = icmp sgt i32 %.val.i, 0
  br i1 %22, label %23, label %25, !prof !12

23:                                               ; preds = %21
  %24 = add nuw i32 %.val.i, 1
  store i32 %24, ptr %18, align 4, !tbaa !9
  br label %lean_inc.exit27

25:                                               ; preds = %21
  %.not.i31 = icmp eq i32 %.val.i, 0
  br i1 %.not.i31, label %lean_inc.exit27, label %26

26:                                               ; preds = %25
  tail call void @lean_inc_ref_cold(ptr noundef nonnull %18) #3
  br label %lean_inc.exit27

lean_inc.exit27:                                  ; preds = %26, %25, %23, %lean_array_uget.exit
  %27 = tail call ptr @lean_array_push(ptr noundef %.02446, ptr noundef %18) #3
  %28 = getelementptr inbounds nuw i8, ptr %8, i64 16
  %29 = load ptr, ptr %28, align 8, !tbaa !13
  %30 = ptrtoint ptr %29 to i64
  %31 = and i64 %30, 1
  %.not43 = icmp eq i64 %31, 0
  br i1 %.not43, label %32, label %lean_inc.exit

32:                                               ; preds = %lean_inc.exit27
  %.val.i32 = load i32, ptr %29, align 4, !tbaa !9
  %33 = icmp sgt i32 %.val.i32, 0
  br i1 %33, label %34, label %36, !prof !12

34:                                               ; preds = %32
  %35 = add nuw i32 %.val.i32, 1
  store i32 %35, ptr %29, align 4, !tbaa !9
  br label %lean_inc.exit

36:                                               ; preds = %32
  %.not.i33 = icmp eq i32 %.val.i32, 0
  br i1 %.not.i33, label %lean_inc.exit, label %37

37:                                               ; preds = %36
  tail call void @lean_inc_ref_cold(ptr noundef nonnull %29) #3
  br label %lean_inc.exit

lean_inc.exit:                                    ; preds = %37, %36, %34, %lean_inc.exit27
  br i1 %.not.i30, label %38, label %lean_dec.exit26

38:                                               ; preds = %lean_inc.exit
  %39 = load i32, ptr %8, align 4, !tbaa !9
  %40 = icmp sgt i32 %39, 1
  br i1 %40, label %41, label %43, !prof !12

41:                                               ; preds = %38
  %42 = add nsw i32 %39, -1
  store i32 %42, ptr %8, align 4, !tbaa !9
  br label %lean_dec.exit26

43:                                               ; preds = %38
  %.not.i = icmp eq i32 %39, 0
  br i1 %.not.i, label %lean_dec.exit26, label %44

44:                                               ; preds = %43
  tail call void @lean_dec_ref_cold(ptr noundef nonnull %8) #3
  br label %lean_dec.exit26

lean_dec.exit26:                                  ; preds = %44, %43, %41, %lean_inc.exit
  %45 = tail call ptr @l_Array_append___rarg(ptr noundef %27, ptr noundef %29) #3
  br i1 %.not43, label %46, label %53

46:                                               ; preds = %lean_dec.exit26
  %47 = load i32, ptr %29, align 4, !tbaa !9
  %48 = icmp sgt i32 %47, 1
  br i1 %48, label %49, label %51, !prof !12

49:                                               ; preds = %46
  %50 = add nsw i32 %47, -1
  store i32 %50, ptr %29, align 4, !tbaa !9
  br label %53

51:                                               ; preds = %46
  %.not.i28 = icmp eq i32 %47, 0
  br i1 %.not.i28, label %53, label %52

52:                                               ; preds = %51
  tail call void @lean_dec_ref_cold(ptr noundef nonnull %29) #3
  br label %53

53:                                               ; preds = %lean_dec.exit26, %49, %51, %52
  %54 = add i64 %.02247, 1
  %.not = icmp eq i64 %54, %2
  br i1 %.not, label %._crit_edge, label %6

._crit_edge:                                      ; preds = %53, %4
  %.024.lcssa = phi ptr [ %3, %4 ], [ %45, %53 ]
  ret ptr %.024.lcssa
}